; Function Attrs: mustprogress uwtable
define void @_ZN4pkpy7SStream3strEv(ptr dead_on_unwind noalias writable sret(%"struct.pkpy::Str") align 8 %0, ptr nocapture noundef nonnull align 8 dereferenceable(20) %1) local_unnamed_addr #3 align 2 personality ptr @__gxx_personality_v0 {
  %3 = load i32, ptr %1, align 8
  %4 = getelementptr inbounds i8, ptr %1, i64 4
  %5 = load i32, ptr %4, align 4
  %.not.i.not = icmp sgt i32 %5, %3
  br i1 %.not.i.not, label %_ZN4pkpy10pod_vectorIcLi2EE7reserveEi.exit, label %6

6:                                                ; preds = %2
  %7 = add nsw i32 %3, 1
  store i32 %7, ptr %4, align 4
  %8 = getelementptr inbounds i8, ptr %1, i64 8
  %9 = load ptr, ptr %8, align 8
  %10 = sext i32 %7 to i64
  %11 = tail call noundef ptr @_ZN4pkpy12pool64_allocEm(i64 noundef %10) #23
  store ptr %11, ptr %8, align 8
  %.not6.i = icmp eq ptr %9, null
  %.pre1 = load i32, ptr %1, align 8
  br i1 %.not6.i, label %_ZN4pkpy10pod_vectorIcLi2EE7reserveEi.exit, label %12

12:                                               ; preds = %6
  %13 = sext i32 %.pre1 to i64
  tail call void @llvm.memcpy.p0.p0.i64(ptr align 1 %11, ptr nonnull align 1 %9, i64 %13, i1 false)
  tail call void @_ZN4pkpy14pool64_deallocEPv(ptr noundef nonnull %9) #23
  %.pre = load i32, ptr %1, align 8
  br label %_ZN4pkpy10pod_vectorIcLi2EE7reserveEi.exit

_ZN4pkpy10pod_vectorIcLi2EE7reserveEi.exit:       ; preds = %2, %6, %12
  %14 = phi i32 [ %3, %2 ], [ %.pre1, %6 ], [ %.pre, %12 ]
  %15 = getelementptr inbounds i8, ptr %1, i64 8
  %16 = load ptr, ptr %15, align 8
  %17 = sext i32 %14 to i64
  %18 = getelementptr inbounds i8, ptr %16, i64 %17
  store i8 0, ptr %18, align 1
  %19 = load ptr, ptr %15, align 8
  %20 = load i32, ptr %1, align 8
  store ptr null, ptr %15, align 8
  store i32 0, ptr %1, align 8
  tail call void @_ZN4pkpy3StrC1ESt4pairIPciE(ptr noundef nonnull align 8 dereferenceable(32) %0, ptr %19, i32 %20)
  ret void
}